target datalayout = "e-m:e-p270:32:32-p271:32:32-p272:64:64-i64:64-i128:128-f80:128-n8:16:32:64-S128"
target triple = "x86_64-pc-linux-gnu"

%struct.pg_conn = type { ptr, ptr, ptr, ptr, ptr, ptr, ptr, ptr, ptr, ptr, ptr, ptr, ptr, ptr, ptr, ptr, ptr, ptr, ptr, ptr, ptr, ptr, ptr, ptr, ptr, ptr, ptr, ptr, ptr, ptr, ptr, ptr, ptr, ptr, ptr, ptr, ptr, ptr, ptr, ptr, ptr, ptr, ptr, i8, ptr, i32, %struct.PGNoticeHooks, ptr, i32, i32, i32, i32, i32, [6 x i8], i8, i8, i32, i8, i8, i32, i8, i32, ptr, ptr, i32, i32, ptr, ptr, ptr, ptr, ptr, i32, %struct.SockAddr, %struct.SockAddr, i32, i32, i8, i8, i8, i8, i8, i8, ptr, i8, i32, [1 x ptr], i8, i8, ptr, ptr, i32, i32, i32, i8, i8, i32, i32, ptr, i8, i64, ptr, i64, ptr, i32, i32, ptr, i32, i8, i32, i32, i32, i32, ptr, %struct.pg_prng_state, ptr, i32, i32, i32, i32, ptr, i32, i32, i32, i32, ptr, i32, ptr, i8, ptr, ptr, ptr, i32, i8, i8, i8, i8, i8, i8, i8, i8, %struct.PQExpBufferData, i32, %struct.PQExpBufferData }
%struct.PGNoticeHooks = type { ptr, ptr, ptr, ptr }
%struct.SockAddr = type { %struct.sockaddr_storage, i32 }
%struct.sockaddr_storage = type { i16, [118 x i8], i64 }
%struct.pg_prng_state = type { i64, i64 }
%struct.PQExpBufferData = type { ptr, i64, i64 }
%struct._PQconninfoOption = type { ptr, ptr, ptr, ptr, ptr, ptr, i32 }
%struct._internalPQconninfoOption = type { ptr, ptr, ptr, ptr, ptr, ptr, i32, i64 }

@.str = private unnamed_addr constant [14 x i8] c"out of memory\00", align 1

; Function Attrs: nounwind uwtable
define internal ptr @conninfo_find(ptr noundef %0, ptr noundef %1) #0 {
  %3 = alloca ptr, align 8
  %4 = alloca ptr, align 8
  %5 = alloca ptr, align 8
  %6 = alloca ptr, align 8
  %7 = alloca i32, align 4
  store ptr %0, ptr %4, align 8
  store ptr %1, ptr %5, align 8
  call void @llvm.lifetime.start.p0(i64 8, ptr %6) #12
  %8 = load ptr, ptr %4, align 8
  store ptr %8, ptr %6, align 8
  br label %9

9:                                                ; preds = %24, %2
  %10 = load ptr, ptr %6, align 8
  %11 = getelementptr inbounds nuw %struct._PQconninfoOption, ptr %10, i32 0, i32 0
  %12 = load ptr, ptr %11, align 8
  %13 = icmp ne ptr %12, null
  br i1 %13, label %14, label %27

14:                                               ; preds = %9
  %15 = load ptr, ptr %6, align 8
  %16 = getelementptr inbounds nuw %struct._PQconninfoOption, ptr %15, i32 0, i32 0
  %17 = load ptr, ptr %16, align 8
  %18 = load ptr, ptr %5, align 8
  %19 = call i32 @strcmp(ptr noundef %17, ptr noundef %18) #13
  %20 = icmp eq i32 %19, 0
  br i1 %20, label %21, label %23

21:                                               ; preds = %14
  %22 = load ptr, ptr %6, align 8
  store ptr %22, ptr %3, align 8
  store i32 1, ptr %7, align 4
  br label %28

23:                                               ; preds = %14
  br label %24

24:                                               ; preds = %23
  %25 = load ptr, ptr %6, align 8
  %26 = getelementptr inbounds nuw %struct._PQconninfoOption, ptr %25, i32 1
  store ptr %26, ptr %6, align 8
  br label %9, !llvm.loop !48

27:                                               ; preds = %9
  store ptr null, ptr %3, align 8
  store i32 1, ptr %7, align 4
  br label %28

28:                                               ; preds = %27, %21
  call void @llvm.lifetime.end.p0(i64 8, ptr %6) #12
  %29 = load ptr, ptr %3, align 8
  ret ptr %29
}

; Function Attrs: nounwind uwtable
define internal ptr @conninfo_getval(ptr noundef %0, ptr noundef %1) #0 {
  %3 = alloca ptr, align 8
  %4 = alloca ptr, align 8
  %5 = alloca ptr, align 8
  store ptr %0, ptr %3, align 8
  store ptr %1, ptr %4, align 8
  call void @llvm.lifetime.start.p0(i64 8, ptr %5) #12
  %6 = load ptr, ptr %3, align 8
  %7 = load ptr, ptr %4, align 8
  %8 = call ptr @conninfo_find(ptr noundef %6, ptr noundef %7)
  store ptr %8, ptr %5, align 8
  %9 = load ptr, ptr %5, align 8
  %10 = icmp ne ptr %9, null
  br i1 %10, label %11, label %15

11:                                               ; preds = %2
  %12 = load ptr, ptr %5, align 8
  %13 = getelementptr inbounds nuw %struct._PQconninfoOption, ptr %12, i32 0, i32 3
  %14 = load ptr, ptr %13, align 8
  br label %16

15:                                               ; preds = %2
  br label %16

16:                                               ; preds = %15, %11
  %17 = phi ptr [ %14, %11 ], [ null, %15 ]
  call void @llvm.lifetime.end.p0(i64 8, ptr %5) #12
  ret ptr %17
}

; Function Attrs: nounwind uwtable
define void @PQconninfoFree(ptr noundef %0) #0 {
  %2 = alloca ptr, align 8
  %3 = alloca ptr, align 8
  store ptr %0, ptr %2, align 8
  %4 = load ptr, ptr %2, align 8
  %5 = icmp eq ptr %4, null
  br i1 %5, label %6, label %7

6:                                                ; preds = %1
  br label %24

7:                                                ; preds = %1
  call void @llvm.lifetime.start.p0(i64 8, ptr %3) #12
  %8 = load ptr, ptr %2, align 8
  store ptr %8, ptr %3, align 8
  br label %9

9:                                                ; preds = %19, %7
  %10 = load ptr, ptr %3, align 8
  %11 = getelementptr inbounds nuw %struct._PQconninfoOption, ptr %10, i32 0, i32 0
  %12 = load ptr, ptr %11, align 8
  %13 = icmp ne ptr %12, null
  br i1 %13, label %15, label %14

14:                                               ; preds = %9
  call void @llvm.lifetime.end.p0(i64 8, ptr %3) #12
  br label %22

15:                                               ; preds = %9
  %16 = load ptr, ptr %3, align 8
  %17 = getelementptr inbounds nuw %struct._PQconninfoOption, ptr %16, i32 0, i32 3
  %18 = load ptr, ptr %17, align 8
  call void @free(ptr noundef %18) #12
  br label %19

19:                                               ; preds = %15
  %20 = load ptr, ptr %3, align 8
  %21 = getelementptr inbounds nuw %struct._PQconninfoOption, ptr %20, i32 1
  store ptr %21, ptr %3, align 8
  br label %9, !llvm.loop !14

22:                                               ; preds = %14
  %23 = load ptr, ptr %2, align 8
  call void @free(ptr noundef %23) #12
  br label %24

24:                                               ; preds = %22, %6
  ret void
}

; Function Attrs: nounwind uwtable
define internal zeroext i1 @fillPGconn(ptr noundef %0, ptr noundef %1) #0 {
  %3 = alloca i1, align 1
  %4 = alloca ptr, align 8
  %5 = alloca ptr, align 8
  %6 = alloca ptr, align 8
  %7 = alloca ptr, align 8
  %8 = alloca ptr, align 8
  %9 = alloca i32, align 4
  store ptr %0, ptr %4, align 8
  store ptr %1, ptr %5, align 8
  call void @llvm.lifetime.start.p0(i64 8, ptr %6) #12
  store ptr @PQconninfoOptions, ptr %6, align 8
  br label %10

10:                                               ; preds = %53, %2
  %11 = load ptr, ptr %6, align 8
  %12 = getelementptr inbounds nuw %struct._internalPQconninfoOption, ptr %11, i32 0, i32 0
  %13 = load ptr, ptr %12, align 8
  %14 = icmp ne ptr %13, null
  br i1 %14, label %15, label %56

15:                                               ; preds = %10
  %16 = load ptr, ptr %6, align 8
  %17 = getelementptr inbounds nuw %struct._internalPQconninfoOption, ptr %16, i32 0, i32 7
  %18 = load i64, ptr %17, align 8
  %19 = icmp sge i64 %18, 0
  br i1 %19, label %20, label %52

20:                                               ; preds = %15
  call void @llvm.lifetime.start.p0(i64 8, ptr %7) #12
  %21 = load ptr, ptr %5, align 8
  %22 = load ptr, ptr %6, align 8
  %23 = getelementptr inbounds nuw %struct._internalPQconninfoOption, ptr %22, i32 0, i32 0
  %24 = load ptr, ptr %23, align 8
  %25 = call ptr @conninfo_getval(ptr noundef %21, ptr noundef %24)
  store ptr %25, ptr %7, align 8
  %26 = load ptr, ptr %7, align 8
  %27 = icmp ne ptr %26, null
  br i1 %27, label %28, label %48

28:                                               ; preds = %20
  call void @llvm.lifetime.start.p0(i64 8, ptr %8) #12
  %29 = load ptr, ptr %4, align 8
  %30 = load ptr, ptr %6, align 8
  %31 = getelementptr inbounds nuw %struct._internalPQconninfoOption, ptr %30, i32 0, i32 7
  %32 = load i64, ptr %31, align 8
  %33 = getelementptr inbounds i8, ptr %29, i64 %32
  store ptr %33, ptr %8, align 8
  %34 = load ptr, ptr %8, align 8
  %35 = load ptr, ptr %34, align 8
  call void @free(ptr noundef %35) #12
  %36 = load ptr, ptr %7, align 8
  %37 = call noalias ptr @strdup(ptr noundef %36) #12
  %38 = load ptr, ptr %8, align 8
  store ptr %37, ptr %38, align 8
  %39 = load ptr, ptr %8, align 8
  %40 = load ptr, ptr %39, align 8
  %41 = icmp eq ptr %40, null
  br i1 %41, label %42, label %44

42:                                               ; preds = %28
  %43 = load ptr, ptr %4, align 8
  call void (ptr, ptr, ...) @libpq_append_conn_error(ptr noundef %43, ptr noundef @.str)
  store i1 false, ptr %3, align 1
  store i32 1, ptr %9, align 4
  br label %45

44:                                               ; preds = %28
  store i32 0, ptr %9, align 4
  br label %45

45:                                               ; preds = %44, %42
  call void @llvm.lifetime.end.p0(i64 8, ptr %8) #12
  %46 = load i32, ptr %9, align 4
  switch i32 %46, label %49 [
    i32 0, label %47
  ]

47:                                               ; preds = %45
  br label %48

48:                                               ; preds = %47, %20
  store i32 0, ptr %9, align 4
  br label %49

49:                                               ; preds = %48, %45
  call void @llvm.lifetime.end.p0(i64 8, ptr %7) #12
  %50 = load i32, ptr %9, align 4
  switch i32 %50, label %57 [
    i32 0, label %51
  ]

51:                                               ; preds = %49
  br label %52

52:                                               ; preds = %51, %15
  br label %53

53:                                               ; preds = %52
  %54 = load ptr, ptr %6, align 8
  %55 = getelementptr inbounds nuw %struct._internalPQconninfoOption, ptr %54, i32 1
  store ptr %55, ptr %6, align 8
  br label %10, !llvm.loop !13

56:                                               ; preds = %10
  store i1 true, ptr %3, align 1
  store i32 1, ptr %9, align 4
  br label %57

57:                                               ; preds = %56, %49
  call void @llvm.lifetime.end.p0(i64 8, ptr %6) #12
  %58 = load i1, ptr %3, align 1
  ret i1 %58
}

; Function Attrs: nounwind uwtable
define internal zeroext i1 @connectOptions1(ptr noundef %0, ptr noundef %1) #0 {
  %3 = alloca i1, align 1
  %4 = alloca ptr, align 8
  %5 = alloca ptr, align 8
  %6 = alloca ptr, align 8
  %7 = alloca i32, align 4
  store ptr %0, ptr %4, align 8
  store ptr %1, ptr %5, align 8
  call void @llvm.lifetime.start.p0(i64 8, ptr %6) #12
  %8 = load ptr, ptr %5, align 8
  %9 = load ptr, ptr %4, align 8
  %10 = getelementptr inbounds nuw %struct.pg_conn, ptr %9, i32 0, i32 140
  %11 = call ptr @parse_connection_string(ptr noundef %8, ptr noundef %10, i1 noundef zeroext true)
  store ptr %11, ptr %6, align 8
  %12 = load ptr, ptr %6, align 8
  %13 = icmp eq ptr %12, null
  br i1 %13, label %14, label %17

14:                                               ; preds = %2
  %15 = load ptr, ptr %4, align 8
  %16 = getelementptr inbounds nuw %struct.pg_conn, ptr %15, i32 0, i32 50
  store i32 1, ptr %16, align 8
  store i1 false, ptr %3, align 1
  store i32 1, ptr %7, align 4
  br label %27

17:                                               ; preds = %2
  %18 = load ptr, ptr %4, align 8
  %19 = load ptr, ptr %6, align 8
  %20 = call zeroext i1 @fillPGconn(ptr noundef %18, ptr noundef %19)
  br i1 %20, label %25, label %21

21:                                               ; preds = %17
  %22 = load ptr, ptr %4, align 8
  %23 = getelementptr inbounds nuw %struct.pg_conn, ptr %22, i32 0, i32 50
  store i32 1, ptr %23, align 8
  %24 = load ptr, ptr %6, align 8
  call void @PQconninfoFree(ptr noundef %24)
  store i1 false, ptr %3, align 1
  store i32 1, ptr %7, align 4
  br label %27

25:                                               ; preds = %17
  %26 = load ptr, ptr %6, align 8
  call void @PQconninfoFree(ptr noundef %26)
  store i1 true, ptr %3, align 1
  store i32 1, ptr %7, align 4
  br label %27

27:                                               ; preds = %25, %21, %14
  call void @llvm.lifetime.end.p0(i64 8, ptr %6) #12
  %28 = load i1, ptr %3, align 1
  ret i1 %28
}