; Function Attrs: nounwind uwtable
define internal fastcc noundef zeroext i1 @connectOptions1(ptr noundef nonnull %0, ptr noundef %1) unnamed_addr #0 {
  %3 = getelementptr inbounds nuw i8, ptr %0, i64 1120
  %4 = tail call fastcc ptr @parse_connection_string(ptr noundef %1, ptr noundef %3, i1 noundef zeroext true)
  %5 = icmp eq ptr %4, null
  br i1 %5, label %6, label %.preheader

6:                                                ; preds = %2
  %7 = getelementptr inbounds nuw i8, ptr %0, i64 416
  store i32 1, ptr %7, align 8
  br label %39

.preheader:                                       ; preds = %2, %.critedge24.i
  %8 = phi ptr [ %27, %.critedge24.i ], [ @.str.103, %2 ]
  %.01829.i = phi ptr [ %26, %.critedge24.i ], [ @PQconninfoOptions, %2 ]
  %9 = getelementptr inbounds nuw i8, ptr %.01829.i, i64 56
  %10 = load i64, ptr %9, align 8
  %11 = icmp sgt i64 %10, -1
  br i1 %11, label %12, label %.critedge24.i

12:                                               ; preds = %.preheader
  %13 = load ptr, ptr %4, align 8
  %.not9.i.i.i = icmp eq ptr %13, null
  br i1 %.not9.i.i.i, label %.critedge24.i, label %.lr.ph.i.i.i

.lr.ph.i.i.i:                                     ; preds = %12, %17
  %14 = phi ptr [ %19, %17 ], [ %13, %12 ]
  %.010.i.i.i = phi ptr [ %18, %17 ], [ %4, %12 ]
  %15 = tail call i32 @strcmp(ptr noundef nonnull dereferenceable(1) %14, ptr noundef nonnull readonly dereferenceable(1) %8) #26
  %16 = icmp eq i32 %15, 0
  br i1 %16, label %conninfo_getval.exit.i, label %17

17:                                               ; preds = %.lr.ph.i.i.i
  %18 = getelementptr inbounds nuw i8, ptr %.010.i.i.i, i64 56
  %19 = load ptr, ptr %18, align 8
  %.not.i.i.i = icmp eq ptr %19, null
  br i1 %.not.i.i.i, label %.critedge24.i, label %.lr.ph.i.i.i, !llvm.loop !11

conninfo_getval.exit.i:                           ; preds = %.lr.ph.i.i.i
  %20 = getelementptr inbounds nuw i8, ptr %.010.i.i.i, i64 24
  %21 = load ptr, ptr %20, align 8
  %.not21.i = icmp eq ptr %21, null
  br i1 %.not21.i, label %.critedge24.i, label %22

22:                                               ; preds = %conninfo_getval.exit.i
  %23 = getelementptr inbounds nuw i8, ptr %0, i64 %10
  %24 = load ptr, ptr %23, align 8
  tail call void @free(ptr noundef %24) #25
  %25 = tail call noalias ptr @strdup(ptr noundef nonnull %21) #25
  store ptr %25, ptr %23, align 8
  %.not22.i = icmp eq ptr %25, null
  br i1 %.not22.i, label %.preheader.i, label %.critedge24.i

.critedge24.i:                                    ; preds = %17, %22, %conninfo_getval.exit.i, %12, %.preheader
  %26 = getelementptr inbounds nuw i8, ptr %.01829.i, i64 64
  %27 = load ptr, ptr %26, align 8
  %.not.i = icmp eq ptr %27, null
  br i1 %.not.i, label %.preheader.i12, label %.preheader, !llvm.loop !12

.preheader.i:                                     ; preds = %22
  tail call void (ptr, ptr, ...) @libpq_append_conn_error(ptr noundef nonnull %0, ptr noundef nonnull @.str) #25
  %28 = getelementptr inbounds nuw i8, ptr %0, i64 416
  store i32 1, ptr %28, align 8
  %29 = load ptr, ptr %4, align 8
  %.not7.i = icmp eq ptr %29, null
  br i1 %.not7.i, label %PQconninfoFree.exit, label %.lr.ph.i

.lr.ph.i:                                         ; preds = %.preheader.i, %.lr.ph.i
  %.08.i = phi ptr [ %32, %.lr.ph.i ], [ %4, %.preheader.i ]
  %30 = getelementptr inbounds nuw i8, ptr %.08.i, i64 24
  %31 = load ptr, ptr %30, align 8
  tail call void @free(ptr noundef %31) #25
  %32 = getelementptr inbounds nuw i8, ptr %.08.i, i64 56
  %33 = load ptr, ptr %32, align 8
  %.not.i11 = icmp eq ptr %33, null
  br i1 %.not.i11, label %PQconninfoFree.exit, label %.lr.ph.i, !llvm.loop !6

PQconninfoFree.exit:                              ; preds = %.lr.ph.i, %.preheader.i
  tail call void @free(ptr noundef nonnull %4) #25
  br label %39

.preheader.i12:                                   ; preds = %.critedge24.i
  %34 = load ptr, ptr %4, align 8
  %.not7.i13 = icmp eq ptr %34, null
  br i1 %.not7.i13, label %PQconninfoFree.exit18, label %.lr.ph.i14

.lr.ph.i14:                                       ; preds = %.preheader.i12, %.lr.ph.i14
  %.08.i15 = phi ptr [ %37, %.lr.ph.i14 ], [ %4, %.preheader.i12 ]
  %35 = getelementptr inbounds nuw i8, ptr %.08.i15, i64 24
  %36 = load ptr, ptr %35, align 8
  tail call void @free(ptr noundef %36) #25
  %37 = getelementptr inbounds nuw i8, ptr %.08.i15, i64 56
  %38 = load ptr, ptr %37, align 8
  %.not.i16 = icmp eq ptr %38, null
  br i1 %.not.i16, label %PQconninfoFree.exit18, label %.lr.ph.i14, !llvm.loop !6

PQconninfoFree.exit18:                            ; preds = %.lr.ph.i14, %.preheader.i12
  tail call void @free(ptr noundef nonnull %4) #25
  br label %39

39:                                               ; preds = %PQconninfoFree.exit18, %PQconninfoFree.exit, %6
  %.0 = phi i1 [ false, %6 ], [ true, %PQconninfoFree.exit18 ], [ false, %PQconninfoFree.exit ]
  ret i1 %.0
}